target datalayout = "e-m:e-p270:32:32-p271:32:32-p272:64:64-i64:64-i128:128-f80:128-n8:16:32:64-S128"
target triple = "x86_64-pc-linux-gnu"

%struct.AVPacket = type { ptr, i64, i64, ptr, i32, i32, i32, ptr, i32, i64, i64, ptr, ptr, %struct.AVRational }
%struct.AVRational = type { i32, i32 }

; Function Attrs: nounwind uwtable
define internal i32 @cmp_pkt_sub_ts_pos(ptr noundef %0, ptr noundef %1) #0 {
  %3 = alloca i32, align 4
  %4 = alloca ptr, align 8
  %5 = alloca ptr, align 8
  %6 = alloca ptr, align 8
  %7 = alloca ptr, align 8
  %8 = alloca i32, align 4
  store ptr %0, ptr %4, align 8, !tbaa !4
  store ptr %1, ptr %5, align 8, !tbaa !4
  call void @llvm.lifetime.start.p0(i64 8, ptr %6) #9
  %9 = load ptr, ptr %4, align 8, !tbaa !4
  %10 = load ptr, ptr %9, align 8, !tbaa !34
  store ptr %10, ptr %6, align 8, !tbaa !34
  call void @llvm.lifetime.start.p0(i64 8, ptr %7) #9
  %11 = load ptr, ptr %5, align 8, !tbaa !4
  %12 = load ptr, ptr %11, align 8, !tbaa !34
  store ptr %12, ptr %7, align 8, !tbaa !34
  %13 = load ptr, ptr %6, align 8, !tbaa !34
  %14 = getelementptr inbounds nuw %struct.AVPacket, ptr %13, i32 0, i32 1
  %15 = load i64, ptr %14, align 8, !tbaa !45
  %16 = load ptr, ptr %7, align 8, !tbaa !34
  %17 = getelementptr inbounds nuw %struct.AVPacket, ptr %16, i32 0, i32 1
  %18 = load i64, ptr %17, align 8, !tbaa !45
  %19 = icmp eq i64 %15, %18
  br i1 %19, label %20, label %38

20:                                               ; preds = %2
  %21 = load ptr, ptr %6, align 8, !tbaa !34
  %22 = getelementptr inbounds nuw %struct.AVPacket, ptr %21, i32 0, i32 10
  %23 = load i64, ptr %22, align 8, !tbaa !56
  %24 = load ptr, ptr %7, align 8, !tbaa !34
  %25 = getelementptr inbounds nuw %struct.AVPacket, ptr %24, i32 0, i32 10
  %26 = load i64, ptr %25, align 8, !tbaa !56
  %27 = icmp sgt i64 %23, %26
  %28 = zext i1 %27 to i32
  %29 = load ptr, ptr %6, align 8, !tbaa !34
  %30 = getelementptr inbounds nuw %struct.AVPacket, ptr %29, i32 0, i32 10
  %31 = load i64, ptr %30, align 8, !tbaa !56
  %32 = load ptr, ptr %7, align 8, !tbaa !34
  %33 = getelementptr inbounds nuw %struct.AVPacket, ptr %32, i32 0, i32 10
  %34 = load i64, ptr %33, align 8, !tbaa !56
  %35 = icmp slt i64 %31, %34
  %36 = zext i1 %35 to i32
  %37 = sub nsw i32 %28, %36
  store i32 %37, ptr %3, align 4
  store i32 1, ptr %8, align 4
  br label %56

38:                                               ; preds = %2
  %39 = load ptr, ptr %6, align 8, !tbaa !34
  %40 = getelementptr inbounds nuw %struct.AVPacket, ptr %39, i32 0, i32 1
  %41 = load i64, ptr %40, align 8, !tbaa !45
  %42 = load ptr, ptr %7, align 8, !tbaa !34
  %43 = getelementptr inbounds nuw %struct.AVPacket, ptr %42, i32 0, i32 1
  %44 = load i64, ptr %43, align 8, !tbaa !45
  %45 = icmp sgt i64 %41, %44
  %46 = zext i1 %45 to i32
  %47 = load ptr, ptr %6, align 8, !tbaa !34
  %48 = getelementptr inbounds nuw %struct.AVPacket, ptr %47, i32 0, i32 1
  %49 = load i64, ptr %48, align 8, !tbaa !45
  %50 = load ptr, ptr %7, align 8, !tbaa !34
  %51 = getelementptr inbounds nuw %struct.AVPacket, ptr %50, i32 0, i32 1
  %52 = load i64, ptr %51, align 8, !tbaa !45
  %53 = icmp slt i64 %49, %52
  %54 = zext i1 %53 to i32
  %55 = sub nsw i32 %46, %54
  store i32 %55, ptr %3, align 4
  store i32 1, ptr %8, align 4
  br label %56

56:                                               ; preds = %38, %20
  call void @llvm.lifetime.end.p0(i64 8, ptr %7) #9
  call void @llvm.lifetime.end.p0(i64 8, ptr %6) #9
  %57 = load i32, ptr %3, align 4
  ret i32 %57
}