; Function Attrs: mustprogress nofree norecurse nosync nounwind willreturn memory(read, inaccessiblemem: none) uwtable
define internal range(i32 -1, 2) i32 @cmp_pkt_sub_ts_pos(ptr noundef readonly captures(none) %0, ptr noundef readonly captures(none) %1) #5 {
  %3 = load ptr, ptr %0, align 8, !tbaa !28
  %4 = load ptr, ptr %1, align 8, !tbaa !28
  %5 = getelementptr inbounds nuw i8, ptr %3, i64 8
  %6 = load i64, ptr %5, align 8, !tbaa !43
  %7 = getelementptr inbounds nuw i8, ptr %4, i64 8
  %8 = load i64, ptr %7, align 8, !tbaa !43
  %9 = icmp eq i64 %6, %8
  br i1 %9, label %10, label %16

10:                                               ; preds = %2
  %11 = getelementptr inbounds nuw i8, ptr %3, i64 72
  %12 = load i64, ptr %11, align 8, !tbaa !48
  %13 = getelementptr inbounds nuw i8, ptr %4, i64 72
  %14 = load i64, ptr %13, align 8, !tbaa !48
  %15 = tail call i32 @llvm.scmp.i32.i64(i64 %12, i64 %14)
  br label %18

16:                                               ; preds = %2
  %17 = tail call i32 @llvm.scmp.i32.i64(i64 %6, i64 %8)
  br label %18

18:                                               ; preds = %16, %10
  %.0 = phi i32 [ %15, %10 ], [ %17, %16 ]
  ret i32 %.0
}